; Function Attrs: nounwind uwtable
define i32 @Ifd_ManFindDsd(ptr noundef %0, ptr noundef %1) local_unnamed_addr #5 {
  %3 = alloca [16 x i32], align 16
  %4 = alloca ptr, align 8
  store ptr %1, ptr %4, align 8, !tbaa !68
  %5 = load i8, ptr %1, align 1, !tbaa !44
  switch i8 %5, label %.thread [
    i8 48, label %6
    i8 49, label %10
  ]

6:                                                ; preds = %2
  %7 = getelementptr inbounds nuw i8, ptr %1, i64 1
  %8 = load i8, ptr %7, align 1, !tbaa !44
  %9 = icmp eq i8 %8, 0
  br i1 %9, label %34, label %.thread.thread

10:                                               ; preds = %2
  %11 = getelementptr inbounds nuw i8, ptr %1, i64 1
  %12 = load i8, ptr %11, align 1, !tbaa !44
  %13 = icmp eq i8 %12, 0
  br i1 %13, label %34, label %.thread.thread

.thread.thread:                                   ; preds = %6, %10
  call void @llvm.lifetime.start.p0(i64 64, ptr nonnull %3) #28
  br label %.lr.ph.i.preheader

.thread:                                          ; preds = %2
  call void @llvm.lifetime.start.p0(i64 64, ptr nonnull %3) #28
  %.not25.i = icmp eq i8 %5, 0
  br i1 %.not25.i, label %Ifd_ManComputeMatches.exit, label %.lr.ph.i.preheader

.lr.ph.i.preheader:                               ; preds = %.thread.thread, %.thread
  br label %.lr.ph.i

.lr.ph.i:                                         ; preds = %.lr.ph.i.preheader, %30
  %indvars.iv.i = phi i64 [ %indvars.iv.next.i, %30 ], [ 0, %.lr.ph.i.preheader ]
  %.027.i = phi i32 [ %.1.i, %30 ], [ 0, %.lr.ph.i.preheader ]
  %14 = getelementptr inbounds nuw i8, ptr %1, i64 %indvars.iv.i
  %15 = getelementptr inbounds nuw [100 x i32], ptr @Ifd_ManComputeMatches.pMatches, i64 0, i64 %indvars.iv.i
  store i32 0, ptr %15, align 4, !tbaa !37
  %16 = load i8, ptr %14, align 1, !tbaa !44
  switch i8 %16, label %30 [
    i8 40, label %17
    i8 91, label %17
    i8 60, label %17
    i8 123, label %17
    i8 41, label %22
    i8 93, label %22
    i8 62, label %22
    i8 125, label %22
  ]

17:                                               ; preds = %.lr.ph.i, %.lr.ph.i, %.lr.ph.i, %.lr.ph.i
  %18 = add nsw i32 %.027.i, 1
  %19 = sext i32 %.027.i to i64
  %20 = getelementptr inbounds [16 x i32], ptr %3, i64 0, i64 %19
  %21 = trunc nuw nsw i64 %indvars.iv.i to i32
  store i32 %21, ptr %20, align 4, !tbaa !37
  br label %30

22:                                               ; preds = %.lr.ph.i, %.lr.ph.i, %.lr.ph.i, %.lr.ph.i
  %23 = add nsw i32 %.027.i, -1
  %24 = sext i32 %23 to i64
  %25 = getelementptr inbounds [16 x i32], ptr %3, i64 0, i64 %24
  %26 = load i32, ptr %25, align 4, !tbaa !37
  %27 = sext i32 %26 to i64
  %28 = getelementptr inbounds [100 x i32], ptr @Ifd_ManComputeMatches.pMatches, i64 0, i64 %27
  %29 = trunc nuw nsw i64 %indvars.iv.i to i32
  store i32 %29, ptr %28, align 4, !tbaa !37
  br label %30

30:                                               ; preds = %22, %17, %.lr.ph.i
  %.1.i = phi i32 [ %18, %17 ], [ %23, %22 ], [ %.027.i, %.lr.ph.i ]
  %indvars.iv.next.i = add nuw nsw i64 %indvars.iv.i, 1
  %31 = getelementptr inbounds nuw i8, ptr %1, i64 %indvars.iv.next.i
  %32 = load i8, ptr %31, align 1, !tbaa !44
  %.not.i = icmp eq i8 %32, 0
  br i1 %.not.i, label %Ifd_ManComputeMatches.exit, label %.lr.ph.i, !llvm.loop !72

Ifd_ManComputeMatches.exit:                       ; preds = %30, %.thread
  call void @llvm.lifetime.end.p0(i64 64, ptr nonnull %3) #28
  %33 = call i32 @Ifd_ManFindDsd_rec(ptr noundef %0, ptr noundef nonnull %1, ptr noundef nonnull %4, ptr noundef nonnull @Ifd_ManComputeMatches.pMatches)
  br label %34

34:                                               ; preds = %10, %6, %Ifd_ManComputeMatches.exit
  %.0 = phi i32 [ %33, %Ifd_ManComputeMatches.exit ], [ 0, %6 ], [ 1, %10 ]
  ret i32 %.0
}